target datalayout = "e-m:e-p270:32:32-p271:32:32-p272:64:64-i64:64-i128:128-f80:128-n8:16:32:64-S128"
target triple = "x86_64-pc-linux-gnu"

%struct.ucd_record = type { i8, i8, i8, i8, i32, i16, i16 }
%struct.pcre2_real_code_8 = type { %struct.pcre2_memctl, ptr, ptr, [32 x i8], i64, i32, i32, i32, i32, i32, i32, i32, i32, i32, i32, i16, i16, i16, i16, i16, i16, i16, i16 }
%struct.pcre2_memctl = type { ptr, ptr, ptr }

@_pcre2_ucd_records_8 = external constant [0 x %struct.ucd_record], align 4
@_pcre2_ucd_stage2_8 = external constant [0 x i16], align 2
@_pcre2_ucd_stage1_8 = external constant [0 x i16], align 2

; Function Attrs: nounwind uwtable
define internal ptr @set_table_bit(ptr noundef %0, ptr noundef %1, i32 noundef %2, i32 noundef %3, i32 noundef %4) #0 {
  %6 = alloca ptr, align 8
  %7 = alloca ptr, align 8
  %8 = alloca i32, align 4
  %9 = alloca i32, align 4
  %10 = alloca i32, align 4
  %11 = alloca i32, align 4
  %12 = alloca [6 x i8], align 1
  store ptr %0, ptr %6, align 8
  store ptr %1, ptr %7, align 8
  store i32 %2, ptr %8, align 4
  store i32 %3, ptr %9, align 4
  store i32 %4, ptr %10, align 4
  %13 = load ptr, ptr %7, align 8
  %14 = getelementptr inbounds i8, ptr %13, i32 1
  store ptr %14, ptr %7, align 8
  %15 = load i8, ptr %13, align 1
  %16 = zext i8 %15 to i32
  store i32 %16, ptr %11, align 4
  %17 = load i32, ptr %11, align 4
  %18 = and i32 %17, 7
  %19 = shl i32 1, %18
  %20 = load ptr, ptr %6, align 8
  %21 = getelementptr inbounds %struct.pcre2_real_code_8, ptr %20, i32 0, i32 3
  %22 = load i32, ptr %11, align 4
  %23 = udiv i32 %22, 8
  %24 = zext i32 %23 to i64
  %25 = getelementptr inbounds [32 x i8], ptr %21, i64 0, i64 %24
  %26 = load i8, ptr %25, align 1
  %27 = zext i8 %26 to i32
  %28 = or i32 %27, %19
  %29 = trunc i32 %28 to i8
  store i8 %29, ptr %25, align 1
  %30 = load i32, ptr %9, align 4
  %31 = icmp ne i32 %30, 0
  br i1 %31, label %32, label %180

32:                                               ; preds = %5
  %33 = load i32, ptr %11, align 4
  %34 = icmp uge i32 %33, 192
  br i1 %34, label %35, label %179

35:                                               ; preds = %32
  %36 = load i32, ptr %11, align 4
  %37 = and i32 %36, 32
  %38 = icmp eq i32 %37, 0
  br i1 %38, label %39, label %49

39:                                               ; preds = %35
  %40 = load i32, ptr %11, align 4
  %41 = and i32 %40, 31
  %42 = shl i32 %41, 6
  %43 = load ptr, ptr %7, align 8
  %44 = getelementptr inbounds i8, ptr %43, i32 1
  store ptr %44, ptr %7, align 8
  %45 = load i8, ptr %43, align 1
  %46 = zext i8 %45 to i32
  %47 = and i32 %46, 63
  %48 = or i32 %42, %47
  store i32 %48, ptr %11, align 4
  br label %178

49:                                               ; preds = %35
  %50 = load i32, ptr %11, align 4
  %51 = and i32 %50, 16
  %52 = icmp eq i32 %51, 0
  br i1 %52, label %53, label %71

53:                                               ; preds = %49
  %54 = load i32, ptr %11, align 4
  %55 = and i32 %54, 15
  %56 = shl i32 %55, 12
  %57 = load ptr, ptr %7, align 8
  %58 = load i8, ptr %57, align 1
  %59 = zext i8 %58 to i32
  %60 = and i32 %59, 63
  %61 = shl i32 %60, 6
  %62 = or i32 %56, %61
  %63 = load ptr, ptr %7, align 8
  %64 = getelementptr inbounds i8, ptr %63, i64 1
  %65 = load i8, ptr %64, align 1
  %66 = zext i8 %65 to i32
  %67 = and i32 %66, 63
  %68 = or i32 %62, %67
  store i32 %68, ptr %11, align 4
  %69 = load ptr, ptr %7, align 8
  %70 = getelementptr inbounds i8, ptr %69, i64 2
  store ptr %70, ptr %7, align 8
  br label %177

71:                                               ; preds = %49
  %72 = load i32, ptr %11, align 4
  %73 = and i32 %72, 8
  %74 = icmp eq i32 %73, 0
  br i1 %74, label %75, label %100

75:                                               ; preds = %71
  %76 = load i32, ptr %11, align 4
  %77 = and i32 %76, 7
  %78 = shl i32 %77, 18
  %79 = load ptr, ptr %7, align 8
  %80 = load i8, ptr %79, align 1
  %81 = zext i8 %80 to i32
  %82 = and i32 %81, 63
  %83 = shl i32 %82, 12
  %84 = or i32 %78, %83
  %85 = load ptr, ptr %7, align 8
  %86 = getelementptr inbounds i8, ptr %85, i64 1
  %87 = load i8, ptr %86, align 1
  %88 = zext i8 %87 to i32
  %89 = and i32 %88, 63
  %90 = shl i32 %89, 6
  %91 = or i32 %84, %90
  %92 = load ptr, ptr %7, align 8
  %93 = getelementptr inbounds i8, ptr %92, i64 2
  %94 = load i8, ptr %93, align 1
  %95 = zext i8 %94 to i32
  %96 = and i32 %95, 63
  %97 = or i32 %91, %96
  store i32 %97, ptr %11, align 4
  %98 = load ptr, ptr %7, align 8
  %99 = getelementptr inbounds i8, ptr %98, i64 3
  store ptr %99, ptr %7, align 8
  br label %176

100:                                              ; preds = %71
  %101 = load i32, ptr %11, align 4
  %102 = and i32 %101, 4
  %103 = icmp eq i32 %102, 0
  br i1 %103, label %104, label %136

104:                                              ; preds = %100
  %105 = load i32, ptr %11, align 4
  %106 = and i32 %105, 3
  %107 = shl i32 %106, 24
  %108 = load ptr, ptr %7, align 8
  %109 = load i8, ptr %108, align 1
  %110 = zext i8 %109 to i32
  %111 = and i32 %110, 63
  %112 = shl i32 %111, 18
  %113 = or i32 %107, %112
  %114 = load ptr, ptr %7, align 8
  %115 = getelementptr inbounds i8, ptr %114, i64 1
  %116 = load i8, ptr %115, align 1
  %117 = zext i8 %116 to i32
  %118 = and i32 %117, 63
  %119 = shl i32 %118, 12
  %120 = or i32 %113, %119
  %121 = load ptr, ptr %7, align 8
  %122 = getelementptr inbounds i8, ptr %121, i64 2
  %123 = load i8, ptr %122, align 1
  %124 = zext i8 %123 to i32
  %125 = and i32 %124, 63
  %126 = shl i32 %125, 6
  %127 = or i32 %120, %126
  %128 = load ptr, ptr %7, align 8
  %129 = getelementptr inbounds i8, ptr %128, i64 3
  %130 = load i8, ptr %129, align 1
  %131 = zext i8 %130 to i32
  %132 = and i32 %131, 63
  %133 = or i32 %127, %132
  store i32 %133, ptr %11, align 4
  %134 = load ptr, ptr %7, align 8
  %135 = getelementptr inbounds i8, ptr %134, i64 4
  store ptr %135, ptr %7, align 8
  br label %175

136:                                              ; preds = %100
  %137 = load i32, ptr %11, align 4
  %138 = and i32 %137, 1
  %139 = shl i32 %138, 30
  %140 = load ptr, ptr %7, align 8
  %141 = load i8, ptr %140, align 1
  %142 = zext i8 %141 to i32
  %143 = and i32 %142, 63
  %144 = shl i32 %143, 24
  %145 = or i32 %139, %144
  %146 = load ptr, ptr %7, align 8
  %147 = getelementptr inbounds i8, ptr %146, i64 1
  %148 = load i8, ptr %147, align 1
  %149 = zext i8 %148 to i32
  %150 = and i32 %149, 63
  %151 = shl i32 %150, 18
  %152 = or i32 %145, %151
  %153 = load ptr, ptr %7, align 8
  %154 = getelementptr inbounds i8, ptr %153, i64 2
  %155 = load i8, ptr %154, align 1
  %156 = zext i8 %155 to i32
  %157 = and i32 %156, 63
  %158 = shl i32 %157, 12
  %159 = or i32 %152, %158
  %160 = load ptr, ptr %7, align 8
  %161 = getelementptr inbounds i8, ptr %160, i64 3
  %162 = load i8, ptr %161, align 1
  %163 = zext i8 %162 to i32
  %164 = and i32 %163, 63
  %165 = shl i32 %164, 6
  %166 = or i32 %159, %165
  %167 = load ptr, ptr %7, align 8
  %168 = getelementptr inbounds i8, ptr %167, i64 4
  %169 = load i8, ptr %168, align 1
  %170 = zext i8 %169 to i32
  %171 = and i32 %170, 63
  %172 = or i32 %166, %171
  store i32 %172, ptr %11, align 4
  %173 = load ptr, ptr %7, align 8
  %174 = getelementptr inbounds i8, ptr %173, i64 5
  store ptr %174, ptr %7, align 8
  br label %175

175:                                              ; preds = %136, %104
  br label %176

176:                                              ; preds = %175, %75
  br label %177

177:                                              ; preds = %176, %53
  br label %178

178:                                              ; preds = %177, %39
  br label %179

179:                                              ; preds = %178, %32
  br label %180

180:                                              ; preds = %179, %5
  %181 = load i32, ptr %8, align 4
  %182 = icmp ne i32 %181, 0
  br i1 %182, label %183, label %283

183:                                              ; preds = %180
  %184 = load i32, ptr %9, align 4
  %185 = icmp ne i32 %184, 0
  br i1 %185, label %189, label %186

186:                                              ; preds = %183
  %187 = load i32, ptr %10, align 4
  %188 = icmp ne i32 %187, 0
  br i1 %188, label %189, label %252

189:                                              ; preds = %186, %183
  %190 = load i32, ptr %11, align 4
  %191 = load i32, ptr %11, align 4
  %192 = sdiv i32 %191, 128
  %193 = sext i32 %192 to i64
  %194 = getelementptr inbounds [0 x i16], ptr @_pcre2_ucd_stage1_8, i64 0, i64 %193
  %195 = load i16, ptr %194, align 2
  %196 = zext i16 %195 to i32
  %197 = mul nsw i32 %196, 128
  %198 = load i32, ptr %11, align 4
  %199 = srem i32 %198, 128
  %200 = add nsw i32 %197, %199
  %201 = sext i32 %200 to i64
  %202 = getelementptr inbounds [0 x i16], ptr @_pcre2_ucd_stage2_8, i64 0, i64 %201
  %203 = load i16, ptr %202, align 2
  %204 = zext i16 %203 to i32
  %205 = sext i32 %204 to i64
  %206 = getelementptr inbounds %struct.ucd_record, ptr @_pcre2_ucd_records_8, i64 %205
  %207 = getelementptr inbounds %struct.ucd_record, ptr %206, i32 0, i32 4
  %208 = load i32, ptr %207, align 4
  %209 = add nsw i32 %190, %208
  store i32 %209, ptr %11, align 4
  %210 = load i32, ptr %9, align 4
  %211 = icmp ne i32 %210, 0
  br i1 %211, label %212, label %233

212:                                              ; preds = %189
  %213 = load i32, ptr %11, align 4
  %214 = getelementptr inbounds [6 x i8], ptr %12, i64 0, i64 0
  %215 = call i32 @_pcre2_ord2utf_8(i32 noundef %213, ptr noundef %214)
  %216 = getelementptr inbounds [6 x i8], ptr %12, i64 0, i64 0
  %217 = load i8, ptr %216, align 1
  %218 = zext i8 %217 to i32
  %219 = and i32 %218, 7
  %220 = shl i32 1, %219
  %221 = load ptr, ptr %6, align 8
  %222 = getelementptr inbounds %struct.pcre2_real_code_8, ptr %221, i32 0, i32 3
  %223 = getelementptr inbounds [6 x i8], ptr %12, i64 0, i64 0
  %224 = load i8, ptr %223, align 1
  %225 = zext i8 %224 to i32
  %226 = sdiv i32 %225, 8
  %227 = sext i32 %226 to i64
  %228 = getelementptr inbounds [32 x i8], ptr %222, i64 0, i64 %227
  %229 = load i8, ptr %228, align 1
  %230 = zext i8 %229 to i32
  %231 = or i32 %230, %220
  %232 = trunc i32 %231 to i8
  store i8 %232, ptr %228, align 1
  br label %251

233:                                              ; preds = %189
  %234 = load i32, ptr %11, align 4
  %235 = icmp ult i32 %234, 256
  br i1 %235, label %236, label %250

236:                                              ; preds = %233
  %237 = load i32, ptr %11, align 4
  %238 = and i32 %237, 7
  %239 = shl i32 1, %238
  %240 = load ptr, ptr %6, align 8
  %241 = getelementptr inbounds %struct.pcre2_real_code_8, ptr %240, i32 0, i32 3
  %242 = load i32, ptr %11, align 4
  %243 = udiv i32 %242, 8
  %244 = zext i32 %243 to i64
  %245 = getelementptr inbounds [32 x i8], ptr %241, i64 0, i64 %244
  %246 = load i8, ptr %245, align 1
  %247 = zext i8 %246 to i32
  %248 = or i32 %247, %239
  %249 = trunc i32 %248 to i8
  store i8 %249, ptr %245, align 1
  br label %250

250:                                              ; preds = %236, %233
  br label %251

251:                                              ; preds = %250, %212
  br label %282

252:                                              ; preds = %186
  %253 = load ptr, ptr %6, align 8
  %254 = getelementptr inbounds %struct.pcre2_real_code_8, ptr %253, i32 0, i32 1
  %255 = load ptr, ptr %254, align 8
  %256 = load i32, ptr %11, align 4
  %257 = add i32 256, %256
  %258 = zext i32 %257 to i64
  %259 = getelementptr inbounds i8, ptr %255, i64 %258
  %260 = load i8, ptr %259, align 1
  %261 = zext i8 %260 to i32
  %262 = and i32 %261, 7
  %263 = shl i32 1, %262
  %264 = load ptr, ptr %6, align 8
  %265 = getelementptr inbounds %struct.pcre2_real_code_8, ptr %264, i32 0, i32 3
  %266 = load ptr, ptr %6, align 8
  %267 = getelementptr inbounds %struct.pcre2_real_code_8, ptr %266, i32 0, i32 1
  %268 = load ptr, ptr %267, align 8
  %269 = load i32, ptr %11, align 4
  %270 = add i32 256, %269
  %271 = zext i32 %270 to i64
  %272 = getelementptr inbounds i8, ptr %268, i64 %271
  %273 = load i8, ptr %272, align 1
  %274 = zext i8 %273 to i32
  %275 = sdiv i32 %274, 8
  %276 = sext i32 %275 to i64
  %277 = getelementptr inbounds [32 x i8], ptr %265, i64 0, i64 %276
  %278 = load i8, ptr %277, align 1
  %279 = zext i8 %278 to i32
  %280 = or i32 %279, %263
  %281 = trunc i32 %280 to i8
  store i8 %281, ptr %277, align 1
  br label %282

282:                                              ; preds = %252, %251
  br label %283

283:                                              ; preds = %282, %180
  %284 = load ptr, ptr %7, align 8
  ret ptr %284
}