; Function Attrs: nounwind uwtable
define internal fastcc nonnull ptr @set_table_bit(ptr nocapture noundef %0, ptr noundef readonly %1, i32 noundef %2, i32 noundef %3, i32 noundef %4) unnamed_addr #0 {
  %6 = alloca [6 x i8], align 1
  %7 = getelementptr inbounds i8, ptr %1, i64 1
  %8 = load i8, ptr %1, align 1
  %9 = zext i8 %8 to i32
  %10 = and i32 %9, 7
  %11 = shl nuw nsw i32 1, %10
  %12 = getelementptr inbounds i8, ptr %0, i64 40
  %13 = lshr i32 %9, 3
  %14 = zext nneg i32 %13 to i64
  %15 = getelementptr inbounds [32 x i8], ptr %12, i64 0, i64 %14
  %16 = load i8, ptr %15, align 1
  %17 = trunc i32 %11 to i8
  %18 = or i8 %16, %17
  store i8 %18, ptr %15, align 1
  %19 = icmp ne i32 %3, 0
  %20 = icmp ugt i8 %8, -65
  %or.cond3 = and i1 %19, %20
  br i1 %or.cond3, label %21, label %117

21:                                               ; preds = %5
  %22 = and i32 %9, 32
  %23 = icmp eq i32 %22, 0
  br i1 %23, label %24, label %32

24:                                               ; preds = %21
  %25 = shl nuw nsw i32 %9, 6
  %26 = and i32 %25, 1984
  %27 = getelementptr inbounds i8, ptr %1, i64 2
  %28 = load i8, ptr %7, align 1
  %29 = and i8 %28, 63
  %30 = zext nneg i8 %29 to i32
  %31 = or disjoint i32 %26, %30
  br label %117

32:                                               ; preds = %21
  %33 = and i32 %9, 16
  %34 = icmp eq i32 %33, 0
  br i1 %34, label %35, label %49

35:                                               ; preds = %32
  %36 = shl nuw nsw i32 %9, 12
  %37 = and i32 %36, 61440
  %38 = load i8, ptr %7, align 1
  %39 = and i8 %38, 63
  %40 = zext nneg i8 %39 to i32
  %41 = shl nuw nsw i32 %40, 6
  %42 = or disjoint i32 %41, %37
  %43 = getelementptr inbounds i8, ptr %1, i64 2
  %44 = load i8, ptr %43, align 1
  %45 = and i8 %44, 63
  %46 = zext nneg i8 %45 to i32
  %47 = or disjoint i32 %42, %46
  %48 = getelementptr inbounds i8, ptr %1, i64 3
  br label %117

49:                                               ; preds = %32
  %50 = and i32 %9, 8
  %51 = icmp eq i32 %50, 0
  br i1 %51, label %52, label %71

52:                                               ; preds = %49
  %53 = shl nuw nsw i32 %10, 18
  %54 = load i8, ptr %7, align 1
  %55 = and i8 %54, 63
  %56 = zext nneg i8 %55 to i32
  %57 = shl nuw nsw i32 %56, 12
  %58 = or disjoint i32 %57, %53
  %59 = getelementptr inbounds i8, ptr %1, i64 2
  %60 = load i8, ptr %59, align 1
  %61 = and i8 %60, 63
  %62 = zext nneg i8 %61 to i32
  %63 = shl nuw nsw i32 %62, 6
  %64 = or disjoint i32 %58, %63
  %65 = getelementptr inbounds i8, ptr %1, i64 3
  %66 = load i8, ptr %65, align 1
  %67 = and i8 %66, 63
  %68 = zext nneg i8 %67 to i32
  %69 = or disjoint i32 %64, %68
  %70 = getelementptr inbounds i8, ptr %1, i64 4
  br label %117

71:                                               ; preds = %49
  %72 = and i32 %9, 4
  %73 = icmp eq i32 %72, 0
  %74 = load i8, ptr %7, align 1
  %75 = and i8 %74, 63
  %76 = zext nneg i8 %75 to i32
  %77 = getelementptr inbounds i8, ptr %1, i64 2
  %78 = load i8, ptr %77, align 1
  %79 = and i8 %78, 63
  %80 = zext nneg i8 %79 to i32
  %81 = getelementptr inbounds i8, ptr %1, i64 3
  %82 = load i8, ptr %81, align 1
  %83 = and i8 %82, 63
  %84 = zext nneg i8 %83 to i32
  %85 = getelementptr inbounds i8, ptr %1, i64 4
  %86 = load i8, ptr %85, align 1
  %87 = and i8 %86, 63
  %88 = zext nneg i8 %87 to i32
  br i1 %73, label %89, label %100

89:                                               ; preds = %71
  %90 = shl nuw i32 %9, 24
  %91 = and i32 %90, 50331648
  %92 = shl nuw nsw i32 %76, 18
  %93 = or disjoint i32 %92, %91
  %94 = shl nuw nsw i32 %80, 12
  %95 = or disjoint i32 %93, %94
  %96 = shl nuw nsw i32 %84, 6
  %97 = or disjoint i32 %95, %96
  %98 = or disjoint i32 %97, %88
  %99 = getelementptr inbounds i8, ptr %1, i64 5
  br label %117

100:                                              ; preds = %71
  %101 = shl i32 %9, 30
  %102 = and i32 %101, 1073741824
  %103 = shl nuw nsw i32 %76, 24
  %104 = or disjoint i32 %103, %102
  %105 = shl nuw nsw i32 %80, 18
  %106 = or disjoint i32 %104, %105
  %107 = shl nuw nsw i32 %84, 12
  %108 = or disjoint i32 %106, %107
  %109 = shl nuw nsw i32 %88, 6
  %110 = or disjoint i32 %108, %109
  %111 = getelementptr inbounds i8, ptr %1, i64 5
  %112 = load i8, ptr %111, align 1
  %113 = and i8 %112, 63
  %114 = zext nneg i8 %113 to i32
  %115 = or disjoint i32 %110, %114
  %116 = getelementptr inbounds i8, ptr %1, i64 6
  br label %117

117:                                              ; preds = %35, %89, %100, %52, %24, %5
  %.055 = phi ptr [ %27, %24 ], [ %48, %35 ], [ %70, %52 ], [ %99, %89 ], [ %116, %100 ], [ %7, %5 ]
  %.0 = phi i32 [ %31, %24 ], [ %47, %35 ], [ %69, %52 ], [ %98, %89 ], [ %115, %100 ], [ %9, %5 ]
  %.not = icmp eq i32 %2, 0
  br i1 %.not, label %171, label %118

118:                                              ; preds = %117
  %119 = or i32 %4, %3
  %or.cond.not = icmp eq i32 %119, 0
  br i1 %or.cond.not, label %157, label %120

120:                                              ; preds = %118
  %121 = lshr i32 %.0, 7
  %122 = zext nneg i32 %121 to i64
  %123 = getelementptr inbounds [0 x i16], ptr @_pcre2_ucd_stage1_8, i64 0, i64 %122
  %124 = load i16, ptr %123, align 2
  %125 = zext i16 %124 to i32
  %126 = shl nuw nsw i32 %125, 7
  %127 = and i32 %.0, 127
  %128 = or disjoint i32 %126, %127
  %129 = zext nneg i32 %128 to i64
  %130 = getelementptr inbounds [0 x i16], ptr @_pcre2_ucd_stage2_8, i64 0, i64 %129
  %131 = load i16, ptr %130, align 2
  %132 = zext i16 %131 to i64
  %133 = getelementptr inbounds %struct.ucd_record, ptr @_pcre2_ucd_records_8, i64 %132, i32 4
  %134 = load i32, ptr %133, align 4
  %135 = add nsw i32 %134, %.0
  br i1 %19, label %136, label %146

136:                                              ; preds = %120
  %137 = call i32 @_pcre2_ord2utf_8(i32 noundef %135, ptr noundef nonnull %6) #5
  %138 = load i8, ptr %6, align 1
  %139 = and i8 %138, 7
  %140 = shl nuw i8 1, %139
  %141 = lshr i8 %138, 3
  %142 = zext nneg i8 %141 to i64
  %143 = getelementptr inbounds [32 x i8], ptr %12, i64 0, i64 %142
  %144 = load i8, ptr %143, align 1
  %145 = or i8 %140, %144
  store i8 %145, ptr %143, align 1
  br label %171

146:                                              ; preds = %120
  %147 = icmp ult i32 %135, 256
  br i1 %147, label %148, label %171

148:                                              ; preds = %146
  %149 = and i32 %135, 7
  %150 = shl nuw nsw i32 1, %149
  %151 = lshr i32 %135, 3
  %152 = zext nneg i32 %151 to i64
  %153 = getelementptr inbounds [32 x i8], ptr %12, i64 0, i64 %152
  %154 = load i8, ptr %153, align 1
  %155 = trunc i32 %150 to i8
  %156 = or i8 %154, %155
  store i8 %156, ptr %153, align 1
  br label %171

157:                                              ; preds = %118
  %158 = getelementptr inbounds i8, ptr %0, i64 24
  %159 = load ptr, ptr %158, align 8
  %160 = add nuw i32 %.0, 256
  %161 = zext i32 %160 to i64
  %162 = getelementptr inbounds i8, ptr %159, i64 %161
  %163 = load i8, ptr %162, align 1
  %164 = and i8 %163, 7
  %165 = shl nuw i8 1, %164
  %166 = lshr i8 %163, 3
  %167 = zext nneg i8 %166 to i64
  %168 = getelementptr inbounds [32 x i8], ptr %12, i64 0, i64 %167
  %169 = load i8, ptr %168, align 1
  %170 = or i8 %165, %169
  store i8 %170, ptr %168, align 1
  br label %171

171:                                              ; preds = %157, %146, %148, %136, %117
  ret ptr %.055
}